target datalayout = "e-m:e-p270:32:32-p271:32:32-p272:64:64-i64:64-i128:128-f80:128-n8:16:32:64-S128"
target triple = "x86_64-unknown-linux-gnu"

%"class.icu_75::MaybeStackArray" = type <{ ptr, i32, i8, [40 x i8], [3 x i8] }>
%"class.icu_75::MeasureUnit" = type <{ %"class.icu_75::UObject", ptr, i16, i8, [5 x i8] }>
%"class.icu_75::UObject" = type { ptr }
%"class.icu_75::MeasureUnitImpl" = type { i32, %"class.icu_75::MaybeStackVector", %"class.icu_75::CharString" }
%"class.icu_75::MaybeStackVector" = type { %"class.icu_75::MemoryPool" }
%"class.icu_75::MemoryPool" = type { i32, %"class.icu_75::MaybeStackArray.0" }
%"class.icu_75::MaybeStackArray.0" = type { ptr, i32, i8, [8 x ptr] }
%"class.icu_75::CharString" = type { %"class.icu_75::MaybeStackArray", i32, [4 x i8] }

@.str = private unnamed_addr constant [1 x i8] zeroinitializer, align 1
@_ZN6icu_75L8gOffsetsE = internal constant [24 x i32] [i32 0, i32 2, i32 7, i32 17, i32 27, i32 31, i32 332, i32 343, i32 360, i32 364, i32 373, i32 376, i32 380, i32 388, i32 410, i32 414, i32 429, i32 430, i32 436, i32 447, i32 452, i32 456, i32 458, i32 492], align 16

; Function Attrs: mustprogress nounwind uwtable
define weak_odr noundef ptr @_ZNK6icu_7515MaybeStackArrayIcLi40EE8getAliasEv(ptr noundef nonnull align 8 dereferenceable(53) %this) #0 comdat align 2 {
entry:
  %this.addr = alloca ptr, align 8
  store ptr %this, ptr %this.addr, align 8
  %this1 = load ptr, ptr %this.addr, align 8
  %ptr = getelementptr inbounds %"class.icu_75::MaybeStackArray", ptr %this1, i32 0, i32 0
  %0 = load ptr, ptr %ptr, align 8
  ret ptr %0
}

; Function Attrs: mustprogress nounwind uwtable
define noundef i32 @_ZNK6icu_7511MeasureUnit9getOffsetEv(ptr noundef nonnull align 8 dereferenceable(19) %this) #0 align 2 {
entry:
  %retval = alloca i32, align 4
  %this.addr = alloca ptr, align 8
  store ptr %this, ptr %this.addr, align 8
  %this1 = load ptr, ptr %this.addr, align 8
  %fTypeId = getelementptr inbounds %"class.icu_75::MeasureUnit", ptr %this1, i32 0, i32 3
  %0 = load i8, ptr %fTypeId, align 2
  %conv = sext i8 %0 to i32
  %cmp = icmp slt i32 %conv, 0
  br i1 %cmp, label %if.then, label %lor.lhs.false

lor.lhs.false:                                    ; preds = %entry
  %fSubTypeId = getelementptr inbounds %"class.icu_75::MeasureUnit", ptr %this1, i32 0, i32 2
  %1 = load i16, ptr %fSubTypeId, align 8
  %conv2 = sext i16 %1 to i32
  %cmp3 = icmp slt i32 %conv2, 0
  br i1 %cmp3, label %if.then, label %if.end

if.then:                                          ; preds = %lor.lhs.false, %entry
  store i32 -1, ptr %retval, align 4
  br label %return

if.end:                                           ; preds = %lor.lhs.false
  %fTypeId4 = getelementptr inbounds %"class.icu_75::MeasureUnit", ptr %this1, i32 0, i32 3
  %2 = load i8, ptr %fTypeId4, align 2
  %idxprom = sext i8 %2 to i64
  %arrayidx = getelementptr inbounds [24 x i32], ptr @_ZN6icu_75L8gOffsetsE, i64 0, i64 %idxprom
  %3 = load i32, ptr %arrayidx, align 4
  %fSubTypeId5 = getelementptr inbounds %"class.icu_75::MeasureUnit", ptr %this1, i32 0, i32 2
  %4 = load i16, ptr %fSubTypeId5, align 8
  %conv6 = sext i16 %4 to i32
  %add = add nsw i32 %3, %conv6
  store i32 %add, ptr %retval, align 4
  br label %return

return:                                           ; preds = %if.end, %if.then
  %5 = load i32, ptr %retval, align 4
  ret i32 %5
}

; Function Attrs: mustprogress nounwind uwtable
define linkonce_odr noundef ptr @_ZN6icu_7510CharString4dataEv(ptr noundef nonnull align 8 dereferenceable(60) %this) #0 comdat align 2 {
entry:
  %this.addr = alloca ptr, align 8
  store ptr %this, ptr %this.addr, align 8
  %this1 = load ptr, ptr %this.addr, align 8
  %buffer = getelementptr inbounds %"class.icu_75::CharString", ptr %this1, i32 0, i32 0
  %call = call noundef ptr @_ZNK6icu_7515MaybeStackArrayIcLi40EE8getAliasEv(ptr noundef nonnull align 8 dereferenceable(53) %buffer)
  ret ptr %call
}

; Function Attrs: mustprogress uwtable
define noundef ptr @_ZNK6icu_7511MeasureUnit13getIdentifierEv(ptr noundef nonnull align 8 dereferenceable(19) %this) #1 align 2 {
entry:
  %this.addr = alloca ptr, align 8
  store ptr %this, ptr %this.addr, align 8
  %this1 = load ptr, ptr %this.addr, align 8
  %fImpl = getelementptr inbounds %"class.icu_75::MeasureUnit", ptr %this1, i32 0, i32 1
  %0 = load ptr, ptr %fImpl, align 8
  %tobool = icmp ne ptr %0, null
  br i1 %tobool, label %cond.true, label %cond.false

cond.true:                                        ; preds = %entry
  %fImpl2 = getelementptr inbounds %"class.icu_75::MeasureUnit", ptr %this1, i32 0, i32 1
  %1 = load ptr, ptr %fImpl2, align 8
  %identifier = getelementptr inbounds %"class.icu_75::MeasureUnitImpl", ptr %1, i32 0, i32 2
  %call = call noundef ptr @_ZN6icu_7510CharString4dataEv(ptr noundef nonnull align 8 dereferenceable(60) %identifier)
  br label %cond.end

cond.false:                                       ; preds = %entry
  %call3 = call noundef i32 @_ZNK6icu_7511MeasureUnit9getOffsetEv(ptr noundef nonnull align 8 dereferenceable(19) %this1)
  %idxprom = sext i32 %call3 to i64
  %arrayidx = getelementptr inbounds [492 x ptr], ptr @_ZN6icu_75L9gSubTypesE, i64 0, i64 %idxprom
  %2 = load ptr, ptr %arrayidx, align 8
  br label %cond.end

cond.end:                                         ; preds = %cond.false, %cond.true
  %cond = phi ptr [ %call, %cond.true ], [ %2, %cond.false ]
  ret ptr %cond
}

; Function Attrs: mustprogress uwtable
define noundef ptr @_ZNK6icu_7511MeasureUnit10getSubtypeEv(ptr noundef nonnull align 8 dereferenceable(19) %this) #1 align 2 {
entry:
  %retval = alloca ptr, align 8
  %this.addr = alloca ptr, align 8
  store ptr %this, ptr %this.addr, align 8
  %this1 = load ptr, ptr %this.addr, align 8
  %fTypeId = getelementptr inbounds %"class.icu_75::MeasureUnit", ptr %this1, i32 0, i32 3
  %0 = load i8, ptr %fTypeId, align 2
  %conv = sext i8 %0 to i32
  %cmp = icmp eq i32 %conv, -1
  br i1 %cmp, label %if.then, label %if.end

if.then:                                          ; preds = %entry
  store ptr @.str, ptr %retval, align 8
  br label %return

if.end:                                           ; preds = %entry
  %call = call noundef ptr @_ZNK6icu_7511MeasureUnit13getIdentifierEv(ptr noundef nonnull align 8 dereferenceable(19) %this1)
  store ptr %call, ptr %retval, align 8
  br label %return

return:                                           ; preds = %if.end, %if.then
  %1 = load ptr, ptr %retval, align 8
  ret ptr %1
}