; Function Attrs: mustprogress nofree norecurse nosync nounwind willreturn memory(read, inaccessiblemem: none) uwtable
define noundef ptr @_ZNK6icu_7511MeasureUnit10getSubtypeEv(ptr nocapture noundef nonnull readonly align 8 dereferenceable(19) %this) local_unnamed_addr #11 align 2 {
entry:
  %fTypeId = getelementptr inbounds i8, ptr %this, i64 18
  %0 = load i8, ptr %fTypeId, align 2
  %cmp = icmp eq i8 %0, -1
  br i1 %cmp, label %return, label %if.end

if.end:                                           ; preds = %entry
  %fImpl.i = getelementptr inbounds i8, ptr %this, i64 8
  %1 = load ptr, ptr %fImpl.i, align 8
  %tobool.not.i = icmp eq ptr %1, null
  br i1 %tobool.not.i, label %cond.false.i, label %cond.true.i

cond.true.i:                                      ; preds = %if.end
  %identifier.i = getelementptr inbounds i8, ptr %1, i64 96
  br label %_ZNK6icu_7511MeasureUnit13getIdentifierEv.exit

cond.false.i:                                     ; preds = %if.end
  %cmp.i.i = icmp slt i8 %0, 0
  br i1 %cmp.i.i, label %_ZNK6icu_7511MeasureUnit9getOffsetEv.exit.i, label %lor.lhs.false.i.i

lor.lhs.false.i.i:                                ; preds = %cond.false.i
  %fSubTypeId.i.i = getelementptr inbounds i8, ptr %this, i64 16
  %2 = load i16, ptr %fSubTypeId.i.i, align 8
  %cmp3.i.i = icmp slt i16 %2, 0
  br i1 %cmp3.i.i, label %_ZNK6icu_7511MeasureUnit9getOffsetEv.exit.i, label %if.end.i.i

if.end.i.i:                                       ; preds = %lor.lhs.false.i.i
  %conv2.i.i = zext nneg i16 %2 to i32
  %idxprom.i.i = zext nneg i8 %0 to i64
  %arrayidx.i.i = getelementptr inbounds [24 x i32], ptr @_ZN6icu_75L8gOffsetsE, i64 0, i64 %idxprom.i.i
  %3 = load i32, ptr %arrayidx.i.i, align 4
  %add.i.i = add nsw i32 %3, %conv2.i.i
  %4 = sext i32 %add.i.i to i64
  br label %_ZNK6icu_7511MeasureUnit9getOffsetEv.exit.i

_ZNK6icu_7511MeasureUnit9getOffsetEv.exit.i:      ; preds = %if.end.i.i, %lor.lhs.false.i.i, %cond.false.i
  %retval.0.i.i = phi i64 [ %4, %if.end.i.i ], [ -1, %lor.lhs.false.i.i ], [ -1, %cond.false.i ]
  %arrayidx.i = getelementptr inbounds [492 x ptr], ptr @_ZN6icu_75L9gSubTypesE, i64 0, i64 %retval.0.i.i
  br label %_ZNK6icu_7511MeasureUnit13getIdentifierEv.exit

_ZNK6icu_7511MeasureUnit13getIdentifierEv.exit:   ; preds = %cond.true.i, %_ZNK6icu_7511MeasureUnit9getOffsetEv.exit.i
  %cond.in.i = phi ptr [ %identifier.i, %cond.true.i ], [ %arrayidx.i, %_ZNK6icu_7511MeasureUnit9getOffsetEv.exit.i ]
  %cond.i = load ptr, ptr %cond.in.i, align 8
  br label %return

return:                                           ; preds = %entry, %_ZNK6icu_7511MeasureUnit13getIdentifierEv.exit
  %retval.0 = phi ptr [ %cond.i, %_ZNK6icu_7511MeasureUnit13getIdentifierEv.exit ], [ @.str, %entry ]
  ret ptr %retval.0
}